; ModuleID = 'bench/linux/original/nvmem.ll'
source_filename = "bench/linux/original/nvmem.ll"
target datalayout = "e-m:e-p270:32:32-p271:32:32-p272:64:64-i64:64-i128:128-f80:128-n8:16:32:64-S128"
target triple = "x86_64-unknown-linux-gnu"

module asm ".section \22.export_symbol\22,\22a\22 ; __export_symbol_devm_rtc_nvmem_register: ; .asciz \22GPL\22 ; .asciz \22\22 ; .balign 8 ; .quad devm_rtc_nvmem_register ; .previous"

@.str = private unnamed_addr constant [41 x i8] c"failed to register nvmem device for RTC\0A\00", align 1
@__UNIQUE_ID___addressable_devm_rtc_nvmem_register383 = internal global ptr @devm_rtc_nvmem_register, section ".discard.addressable", align 8
@llvm.compiler.used = appending global [1 x ptr] [ptr @__UNIQUE_ID___addressable_devm_rtc_nvmem_register383], section "llvm.metadata"

; Function Attrs: fn_ret_thunk_extern nounwind null_pointer_is_valid
define dso_local i32 @devm_rtc_nvmem_register(ptr nocapture noundef readonly %0, ptr noundef %1) #0 align 16 {
  %3 = getelementptr inbounds i8, ptr %0, i64 64
  %4 = load ptr, ptr %3, align 8
  %5 = icmp eq ptr %1, null
  br i1 %5, label %18, label %6

6:                                                ; preds = %2
  store ptr %4, ptr %1, align 8
  %7 = getelementptr inbounds i8, ptr %0, i64 728
  %8 = load ptr, ptr %7, align 8
  %9 = getelementptr inbounds i8, ptr %1, i64 24
  store ptr %8, ptr %9, align 8
  %10 = getelementptr inbounds i8, ptr %1, i64 44
  store i8 1, ptr %10, align 4
  %11 = tail call ptr @devm_nvmem_register(ptr noundef %4, ptr noundef nonnull %1) #3
  %12 = icmp ugt ptr %11, inttoptr (i64 -4096 to ptr)
  br i1 %12, label %13, label %14

13:                                               ; preds = %6
  tail call void (ptr, ptr, ...) @_dev_err(ptr noundef %4, ptr noundef nonnull @.str) #4
  br label %14

14:                                               ; preds = %13, %6
  %15 = ptrtoint ptr %11 to i64
  %16 = trunc i64 %15 to i32
  %17 = select i1 %12, i32 %16, i32 0
  br label %18

18:                                               ; preds = %14, %2
  %19 = phi i32 [ %17, %14 ], [ -19, %2 ]
  ret i32 %19
}

; Function Attrs: null_pointer_is_valid
declare dso_local ptr @devm_nvmem_register(ptr noundef, ptr noundef) local_unnamed_addr #1

; Function Attrs: cold null_pointer_is_valid
declare dso_local void @_dev_err(ptr noundef, ptr noundef, ...) local_unnamed_addr #2


!llvm.module.flags = !{!0, !1, !2, !3, !4}

!0 = !{i32 1, !"wchar_size", i32 2}
!1 = !{i32 8, !"cf-protection-branch", i32 1}
!2 = !{i32 4, !"function_return_thunk_extern", i32 1}
!3 = !{i32 4, !"indirect_branch_cs_prefix", i32 1}
!4 = !{i32 4, !"SkipRaxSetup", i32 1}
